target datalayout = "e-m:e-p270:32:32-p271:32:32-p272:64:64-i64:64-i128:128-f80:128-n8:16:32:64-S128"
target triple = "x86_64-pc-linux-gnu"

%struct._packet_info = type { ptr, ptr, i32, i32, %struct.nstime_t, %struct.nstime_t, %struct.nstime_t, i8, ptr, ptr, ptr, ptr, %struct._address, %struct._address, %struct._address, %struct._address, %struct._address, %struct._address, i32, ptr, i8, [3 x i8], %struct.anon, i32, i32, i32, i32, ptr, i8, ptr, ptr, i16, i16, i32, i32, i16, i32, i32, ptr, ptr, ptr, i8, i8, i16, i16, i16, i32, i16, i16, ptr, ptr, ptr, ptr, ptr, i32, i32 }
%struct.nstime_t = type { i64, i32 }
%struct._address = type { i32, i32, ptr, ptr }
%struct.anon = type { i8, [3 x i8] }

@.str.692 = private unnamed_addr constant [8 x i8] c"Unknown\00", align 1
@ett_chap = internal global i32 0, align 4
@ett_chap_data = internal global i32 0, align 4
@hf_chap_code = internal global i32 0, align 4
@hf_chap_identifier = internal global i32 0, align 4
@hf_chap_length = internal global i32 0, align 4
@hf_chap_data = internal global i32 0, align 4
@hf_chap_value_size = internal global i32 0, align 4
@hf_chap_value = internal global i32 0, align 4
@hf_chap_name = internal global i32 0, align 4
@hf_chap_message = internal global i32 0, align 4
@hf_chap_stuff = internal global i32 0, align 4
@.str.778 = private unnamed_addr constant [9 x i8] c"PPP CHAP\00", align 1
@proto_chap = internal global i32 0, align 4
@.str.1006 = private unnamed_addr constant [1 x i8] zeroinitializer, align 1
@.str.1007 = private unnamed_addr constant [2 x i8] c"s\00", align 1
@.str.1578 = private unnamed_addr constant [27 x i8] c"%u (invalid, must be >= 4)\00", align 1
@.str.1579 = private unnamed_addr constant [35 x i8] c"%d byte%s (invalid, must be <= %u)\00", align 1
@.str.1580 = private unnamed_addr constant [27 x i8] c" (NAME='%s%s', VALUE=0x%s)\00", align 1
@.str.1581 = private unnamed_addr constant [4 x i8] c"...\00", align 1
@.str.1582 = private unnamed_addr constant [16 x i8] c" (MESSAGE='%s')\00", align 1

; Function Attrs: null_pointer_is_valid sspstrong uwtable
define internal i32 @dissect_chap(ptr noundef %0, ptr noundef %1, ptr noundef %2, ptr noundef %3) #1 {
  %5 = alloca i32, align 4
  %6 = alloca ptr, align 8
  %7 = alloca ptr, align 8
  %8 = alloca ptr, align 8
  %9 = alloca ptr, align 8
  %10 = alloca ptr, align 8
  %11 = alloca ptr, align 8
  %12 = alloca ptr, align 8
  %13 = alloca ptr, align 8
  %14 = alloca i8, align 1
  %15 = alloca i8, align 1
  %16 = alloca i32, align 4
  %17 = alloca i32, align 4
  %18 = alloca i32, align 4
  %19 = alloca i32, align 4
  %20 = alloca i32, align 4
  %21 = alloca i32, align 4
  store ptr %0, ptr %6, align 8
  store ptr %1, ptr %7, align 8
  store ptr %2, ptr %8, align 8
  store ptr %3, ptr %9, align 8
  call void @llvm.lifetime.start.p0(i64 8, ptr %10) #6
  call void @llvm.lifetime.start.p0(i64 8, ptr %11) #6
  call void @llvm.lifetime.start.p0(i64 8, ptr %12) #6
  call void @llvm.lifetime.start.p0(i64 8, ptr %13) #6
  call void @llvm.lifetime.start.p0(i64 1, ptr %14) #6
  call void @llvm.lifetime.start.p0(i64 1, ptr %15) #6
  call void @llvm.lifetime.start.p0(i64 4, ptr %16) #6
  call void @llvm.lifetime.start.p0(i64 4, ptr %17) #6
  %22 = load ptr, ptr %6, align 8
  %23 = call zeroext i8 @tvb_get_uint8(ptr noundef %22, i32 noundef 0)
  store i8 %23, ptr %14, align 1
  %24 = load ptr, ptr %7, align 8
  %25 = getelementptr inbounds nuw %struct._packet_info, ptr %24, i32 0, i32 1
  %26 = load ptr, ptr %25, align 8
  call void @col_set_str(ptr noundef %26, i32 noundef 35, ptr noundef @.str.778)
  %27 = load ptr, ptr %7, align 8
  %28 = getelementptr inbounds nuw %struct._packet_info, ptr %27, i32 0, i32 1
  %29 = load ptr, ptr %28, align 8
  %30 = load i8, ptr %14, align 1
  %31 = zext i8 %30 to i32
  %32 = call ptr @val_to_str_const(i32 noundef %31, ptr noundef @chap_vals, ptr noundef @.str.692)
  call void @col_set_str(ptr noundef %29, i32 noundef 25, ptr noundef %32)
  %33 = load ptr, ptr %8, align 8
  %34 = load i32, ptr @proto_chap, align 4
  %35 = load ptr, ptr %6, align 8
  %36 = call ptr @proto_tree_add_item(ptr noundef %33, i32 noundef %34, ptr noundef %35, i32 noundef 0, i32 noundef -1, i32 noundef 0)
  store ptr %36, ptr %10, align 8
  %37 = load ptr, ptr %10, align 8
  %38 = load i32, ptr @ett_chap, align 4
  %39 = call ptr @proto_item_add_subtree(ptr noundef %37, i32 noundef %38)
  store ptr %39, ptr %11, align 8
  %40 = load ptr, ptr %11, align 8
  %41 = load i32, ptr @hf_chap_code, align 4
  %42 = load ptr, ptr %6, align 8
  %43 = call ptr @proto_tree_add_item(ptr noundef %40, i32 noundef %41, ptr noundef %42, i32 noundef 0, i32 noundef 1, i32 noundef 0)
  %44 = load ptr, ptr %11, align 8
  %45 = load i32, ptr @hf_chap_identifier, align 4
  %46 = load ptr, ptr %6, align 8
  %47 = call ptr @proto_tree_add_item(ptr noundef %44, i32 noundef %45, ptr noundef %46, i32 noundef 1, i32 noundef 1, i32 noundef 0)
  %48 = load ptr, ptr %6, align 8
  %49 = call zeroext i16 @tvb_get_ntohs(ptr noundef %48, i32 noundef 2)
  %50 = zext i16 %49 to i32
  store i32 %50, ptr %16, align 4
  %51 = load i32, ptr %16, align 4
  %52 = icmp ult i32 %51, 4
  br i1 %52, label %53, label %60

53:                                               ; preds = %4
  %54 = load ptr, ptr %11, align 8
  %55 = load i32, ptr @hf_chap_length, align 4
  %56 = load ptr, ptr %6, align 8
  %57 = load i32, ptr %16, align 4
  %58 = load i32, ptr %16, align 4
  %59 = call ptr (ptr, i32, ptr, i32, i32, i32, ptr, ...) @proto_tree_add_uint_format_value(ptr noundef %54, i32 noundef %55, ptr noundef %56, i32 noundef 2, i32 noundef 2, i32 noundef %57, ptr noundef @.str.1578, i32 noundef %58)
  store i32 4, ptr %5, align 4
  store i32 1, ptr %18, align 4
  br label %222

60:                                               ; preds = %4
  %61 = load ptr, ptr %10, align 8
  %62 = load i32, ptr %16, align 4
  call void @proto_item_set_len(ptr noundef %61, i32 noundef %62)
  %63 = load ptr, ptr %11, align 8
  %64 = load i32, ptr @hf_chap_length, align 4
  %65 = load ptr, ptr %6, align 8
  %66 = call ptr @proto_tree_add_item(ptr noundef %63, i32 noundef %64, ptr noundef %65, i32 noundef 2, i32 noundef 2, i32 noundef 0)
  store i32 4, ptr %17, align 4
  %67 = load i32, ptr %16, align 4
  %68 = sub i32 %67, 4
  store i32 %68, ptr %16, align 4
  %69 = load i8, ptr %14, align 1
  %70 = zext i8 %69 to i32
  switch i32 %70, label %208 [
    i32 1, label %71
    i32 2, label %71
    i32 3, label %187
    i32 4, label %187
  ]

71:                                               ; preds = %60, %60
  %72 = load i32, ptr %16, align 4
  %73 = icmp ugt i32 %72, 0
  br i1 %73, label %74, label %186

74:                                               ; preds = %71
  call void @llvm.lifetime.start.p0(i64 4, ptr %19) #6
  store i32 0, ptr %19, align 4
  call void @llvm.lifetime.start.p0(i64 4, ptr %20) #6
  store i32 0, ptr %20, align 4
  call void @llvm.lifetime.start.p0(i64 4, ptr %21) #6
  store i32 0, ptr %21, align 4
  %75 = load ptr, ptr %11, align 8
  %76 = load i32, ptr @hf_chap_data, align 4
  %77 = load ptr, ptr %6, align 8
  %78 = load i32, ptr %17, align 4
  %79 = load i32, ptr %16, align 4
  %80 = call ptr @proto_tree_add_item(ptr noundef %75, i32 noundef %76, ptr noundef %77, i32 noundef %78, i32 noundef %79, i32 noundef 0)
  store ptr %80, ptr %12, align 8
  %81 = load ptr, ptr %12, align 8
  %82 = load i32, ptr @ett_chap_data, align 4
  %83 = call ptr @proto_item_add_subtree(ptr noundef %81, i32 noundef %82)
  store ptr %83, ptr %13, align 8
  %84 = load i32, ptr %16, align 4
  %85 = add i32 %84, -1
  store i32 %85, ptr %16, align 4
  %86 = load ptr, ptr %6, align 8
  %87 = load i32, ptr %17, align 4
  %88 = call zeroext i8 @tvb_get_uint8(ptr noundef %86, i32 noundef %87)
  store i8 %88, ptr %15, align 1
  %89 = load i8, ptr %15, align 1
  %90 = zext i8 %89 to i32
  %91 = load i32, ptr %16, align 4
  %92 = icmp ugt i32 %90, %91
  br i1 %92, label %93, label %109

93:                                               ; preds = %74
  %94 = load ptr, ptr %13, align 8
  %95 = load i32, ptr @hf_chap_value_size, align 4
  %96 = load ptr, ptr %6, align 8
  %97 = load i32, ptr %17, align 4
  %98 = load i8, ptr %15, align 1
  %99 = zext i8 %98 to i32
  %100 = load i8, ptr %15, align 1
  %101 = zext i8 %100 to i32
  %102 = load i8, ptr %15, align 1
  %103 = zext i8 %102 to i32
  %104 = icmp eq i32 %103, 1
  %105 = select i1 %104, ptr @.str.1006, ptr @.str.1007
  %106 = load i32, ptr %16, align 4
  %107 = call ptr (ptr, i32, ptr, i32, i32, i32, ptr, ...) @proto_tree_add_uint_format_value(ptr noundef %94, i32 noundef %95, ptr noundef %96, i32 noundef %97, i32 noundef 1, i32 noundef %99, ptr noundef @.str.1579, i32 noundef %101, ptr noundef %105, i32 noundef %106)
  %108 = load i32, ptr %17, align 4
  store i32 %108, ptr %5, align 4
  store i32 1, ptr %18, align 4
  br label %183

109:                                              ; preds = %74
  %110 = load ptr, ptr %13, align 8
  %111 = load i32, ptr @hf_chap_value_size, align 4
  %112 = load ptr, ptr %6, align 8
  %113 = load i32, ptr %17, align 4
  %114 = call ptr @proto_tree_add_item(ptr noundef %110, i32 noundef %111, ptr noundef %112, i32 noundef %113, i32 noundef 1, i32 noundef 0)
  %115 = load i32, ptr %17, align 4
  %116 = add i32 %115, 1
  store i32 %116, ptr %17, align 4
  %117 = load i32, ptr %16, align 4
  %118 = icmp ugt i32 %117, 0
  br i1 %118, label %119, label %182

119:                                              ; preds = %109
  %120 = load i32, ptr %17, align 4
  store i32 %120, ptr %19, align 4
  %121 = load ptr, ptr %13, align 8
  %122 = load i32, ptr @hf_chap_value, align 4
  %123 = load ptr, ptr %6, align 8
  %124 = load i32, ptr %17, align 4
  %125 = load i8, ptr %15, align 1
  %126 = zext i8 %125 to i32
  %127 = call ptr @proto_tree_add_item(ptr noundef %121, i32 noundef %122, ptr noundef %123, i32 noundef %124, i32 noundef %126, i32 noundef 0)
  %128 = load i8, ptr %15, align 1
  %129 = zext i8 %128 to i32
  %130 = load i32, ptr %17, align 4
  %131 = add i32 %130, %129
  store i32 %131, ptr %17, align 4
  %132 = load i8, ptr %15, align 1
  %133 = zext i8 %132 to i32
  %134 = load i32, ptr %16, align 4
  %135 = sub i32 %134, %133
  store i32 %135, ptr %16, align 4
  %136 = load i32, ptr %16, align 4
  %137 = icmp ugt i32 %136, 0
  br i1 %137, label %138, label %147

138:                                              ; preds = %119
  %139 = load ptr, ptr %13, align 8
  %140 = load i32, ptr @hf_chap_name, align 4
  %141 = load ptr, ptr %6, align 8
  %142 = load i32, ptr %17, align 4
  %143 = load i32, ptr %16, align 4
  %144 = call ptr @proto_tree_add_item(ptr noundef %139, i32 noundef %140, ptr noundef %141, i32 noundef %142, i32 noundef %143, i32 noundef 0)
  %145 = load i32, ptr %17, align 4
  store i32 %145, ptr %20, align 4
  %146 = load i32, ptr %16, align 4
  store i32 %146, ptr %21, align 4
  br label %147

147:                                              ; preds = %138, %119
  %148 = load ptr, ptr %7, align 8
  %149 = getelementptr inbounds nuw %struct._packet_info, ptr %148, i32 0, i32 1
  %150 = load ptr, ptr %149, align 8
  %151 = load ptr, ptr %7, align 8
  %152 = getelementptr inbounds nuw %struct._packet_info, ptr %151, i32 0, i32 51
  %153 = load ptr, ptr %152, align 8
  %154 = load ptr, ptr %6, align 8
  %155 = load i32, ptr %20, align 4
  %156 = load i32, ptr %21, align 4
  %157 = icmp ugt i32 %156, 20
  br i1 %157, label %158, label %159

158:                                              ; preds = %147
  br label %161

159:                                              ; preds = %147
  %160 = load i32, ptr %21, align 4
  br label %161

161:                                              ; preds = %159, %158
  %162 = phi i32 [ 20, %158 ], [ %160, %159 ]
  %163 = call ptr @tvb_format_text(ptr noundef %153, ptr noundef %154, i32 noundef %155, i32 noundef %162)
  %164 = load i32, ptr %21, align 4
  %165 = icmp ugt i32 %164, 20
  %166 = select i1 %165, ptr @.str.1581, ptr @.str.1006
  %167 = load i8, ptr %15, align 1
  %168 = zext i8 %167 to i32
  %169 = icmp sgt i32 %168, 0
  br i1 %169, label %170, label %179

170:                                              ; preds = %161
  %171 = load ptr, ptr %7, align 8
  %172 = getelementptr inbounds nuw %struct._packet_info, ptr %171, i32 0, i32 51
  %173 = load ptr, ptr %172, align 8
  %174 = load ptr, ptr %6, align 8
  %175 = load i32, ptr %19, align 4
  %176 = load i8, ptr %15, align 1
  %177 = zext i8 %176 to i32
  %178 = call ptr @tvb_bytes_to_str(ptr noundef %173, ptr noundef %174, i32 noundef %175, i32 noundef %177)
  br label %180

179:                                              ; preds = %161
  br label %180

180:                                              ; preds = %179, %170
  %181 = phi ptr [ %178, %170 ], [ @.str.1006, %179 ]
  call void (ptr, i32, ptr, ...) @col_append_fstr(ptr noundef %150, i32 noundef 25, ptr noundef @.str.1580, ptr noundef %163, ptr noundef %166, ptr noundef %181)
  br label %182

182:                                              ; preds = %180, %109
  store i32 0, ptr %18, align 4
  br label %183

183:                                              ; preds = %182, %93
  call void @llvm.lifetime.end.p0(i64 4, ptr %21) #6
  call void @llvm.lifetime.end.p0(i64 4, ptr %20) #6
  call void @llvm.lifetime.end.p0(i64 4, ptr %19) #6
  %184 = load i32, ptr %18, align 4
  switch i32 %184, label %222 [
    i32 0, label %185
  ]

185:                                              ; preds = %183
  br label %186

186:                                              ; preds = %185, %71
  br label %219

187:                                              ; preds = %60, %60
  %188 = load i32, ptr %16, align 4
  %189 = icmp ugt i32 %188, 0
  br i1 %189, label %190, label %197

190:                                              ; preds = %187
  %191 = load ptr, ptr %11, align 8
  %192 = load i32, ptr @hf_chap_message, align 4
  %193 = load ptr, ptr %6, align 8
  %194 = load i32, ptr %17, align 4
  %195 = load i32, ptr %16, align 4
  %196 = call ptr @proto_tree_add_item(ptr noundef %191, i32 noundef %192, ptr noundef %193, i32 noundef %194, i32 noundef %195, i32 noundef 0)
  br label %197

197:                                              ; preds = %190, %187
  %198 = load ptr, ptr %7, align 8
  %199 = getelementptr inbounds nuw %struct._packet_info, ptr %198, i32 0, i32 1
  %200 = load ptr, ptr %199, align 8
  %201 = load ptr, ptr %7, align 8
  %202 = getelementptr inbounds nuw %struct._packet_info, ptr %201, i32 0, i32 51
  %203 = load ptr, ptr %202, align 8
  %204 = load ptr, ptr %6, align 8
  %205 = load i32, ptr %17, align 4
  %206 = load i32, ptr %16, align 4
  %207 = call ptr @tvb_format_text(ptr noundef %203, ptr noundef %204, i32 noundef %205, i32 noundef %206)
  call void (ptr, i32, ptr, ...) @col_append_fstr(ptr noundef %200, i32 noundef 25, ptr noundef @.str.1582, ptr noundef %207)
  br label %219

208:                                              ; preds = %60
  %209 = load i32, ptr %16, align 4
  %210 = icmp ugt i32 %209, 0
  br i1 %210, label %211, label %218

211:                                              ; preds = %208
  %212 = load ptr, ptr %11, align 8
  %213 = load i32, ptr @hf_chap_stuff, align 4
  %214 = load ptr, ptr %6, align 8
  %215 = load i32, ptr %17, align 4
  %216 = load i32, ptr %16, align 4
  %217 = call ptr @proto_tree_add_item(ptr noundef %212, i32 noundef %213, ptr noundef %214, i32 noundef %215, i32 noundef %216, i32 noundef 0)
  br label %218

218:                                              ; preds = %211, %208
  br label %219

219:                                              ; preds = %218, %197, %186
  %220 = load ptr, ptr %6, align 8
  %221 = call i32 @tvb_captured_length(ptr noundef %220)
  store i32 %221, ptr %5, align 4
  store i32 1, ptr %18, align 4
  br label %222

222:                                              ; preds = %219, %183, %53
  call void @llvm.lifetime.end.p0(i64 4, ptr %17) #6
  call void @llvm.lifetime.end.p0(i64 4, ptr %16) #6
  call void @llvm.lifetime.end.p0(i64 1, ptr %15) #6
  call void @llvm.lifetime.end.p0(i64 1, ptr %14) #6
  call void @llvm.lifetime.end.p0(i64 8, ptr %13) #6
  call void @llvm.lifetime.end.p0(i64 8, ptr %12) #6
  call void @llvm.lifetime.end.p0(i64 8, ptr %11) #6
  call void @llvm.lifetime.end.p0(i64 8, ptr %10) #6
  %223 = load i32, ptr %5, align 4
  ret i32 %223
}