; Function Attrs: null_pointer_is_valid sspstrong uwtable
define internal i32 @dissect_chap(ptr noundef %0, ptr noundef readonly captures(none) %1, ptr noundef %2, ptr readnone captures(none) %3) #1 {
  %5 = tail call zeroext i8 @tvb_get_uint8(ptr noundef %0, i32 noundef 0)
  %6 = getelementptr inbounds nuw i8, ptr %1, i64 8
  %7 = load ptr, ptr %6, align 8
  tail call void @col_set_str(ptr noundef %7, i32 noundef 35, ptr noundef nonnull @.str.778)
  %8 = load ptr, ptr %6, align 8
  %9 = zext i8 %5 to i32
  %10 = tail call ptr @val_to_str_const(i32 noundef %9, ptr noundef nonnull @chap_vals, ptr noundef nonnull @.str.692)
  tail call void @col_set_str(ptr noundef %8, i32 noundef 25, ptr noundef %10)
  %11 = load i32, ptr @proto_chap, align 4
  %12 = tail call ptr @proto_tree_add_item(ptr noundef %2, i32 noundef %11, ptr noundef %0, i32 noundef 0, i32 noundef -1, i32 noundef 0)
  %13 = load i32, ptr @ett_chap, align 4
  %14 = tail call ptr @proto_item_add_subtree(ptr noundef %12, i32 noundef %13)
  %15 = load i32, ptr @hf_chap_code, align 4
  %16 = tail call ptr @proto_tree_add_item(ptr noundef %14, i32 noundef %15, ptr noundef %0, i32 noundef 0, i32 noundef 1, i32 noundef 0)
  %17 = load i32, ptr @hf_chap_identifier, align 4
  %18 = tail call ptr @proto_tree_add_item(ptr noundef %14, i32 noundef %17, ptr noundef %0, i32 noundef 1, i32 noundef 1, i32 noundef 0)
  %19 = tail call zeroext i16 @tvb_get_ntohs(ptr noundef %0, i32 noundef 2)
  %20 = zext i16 %19 to i32
  %21 = icmp ult i16 %19, 4
  br i1 %21, label %22, label %25

22:                                               ; preds = %4
  %23 = load i32, ptr @hf_chap_length, align 4
  %24 = tail call ptr (ptr, i32, ptr, i32, i32, i32, ptr, ...) @proto_tree_add_uint_format_value(ptr noundef %14, i32 noundef %23, ptr noundef %0, i32 noundef 2, i32 noundef 2, i32 noundef %20, ptr noundef nonnull @.str.1578, i32 noundef %20)
  br label %79

25:                                               ; preds = %4
  tail call void @proto_item_set_len(ptr noundef %12, i32 noundef %20)
  %26 = load i32, ptr @hf_chap_length, align 4
  %27 = tail call ptr @proto_tree_add_item(ptr noundef %14, i32 noundef %26, ptr noundef %0, i32 noundef 2, i32 noundef 2, i32 noundef 0)
  %28 = add nsw i32 %20, -4
  switch i8 %5, label %74 [
    i8 1, label %29
    i8 2, label %29
    i8 3, label %65
    i8 4, label %65
  ]

29:                                               ; preds = %25, %25
  %.not103 = icmp eq i32 %28, 0
  br i1 %.not103, label %.thread, label %30

30:                                               ; preds = %29
  %31 = load i32, ptr @hf_chap_data, align 4
  %32 = tail call ptr @proto_tree_add_item(ptr noundef %14, i32 noundef %31, ptr noundef %0, i32 noundef 4, i32 noundef %28, i32 noundef 0)
  %33 = load i32, ptr @ett_chap_data, align 4
  %34 = tail call ptr @proto_item_add_subtree(ptr noundef %32, i32 noundef %33)
  %35 = add nsw i32 %20, -5
  %36 = tail call zeroext i8 @tvb_get_uint8(ptr noundef %0, i32 noundef 4)
  %37 = zext i8 %36 to i32
  %.not107 = icmp ult i32 %35, %37
  %38 = load i32, ptr @hf_chap_value_size, align 4
  br i1 %.not107, label %61, label %39

39:                                               ; preds = %30
  %40 = tail call ptr @proto_tree_add_item(ptr noundef %34, i32 noundef %38, ptr noundef %0, i32 noundef 4, i32 noundef 1, i32 noundef 0)
  %.not104 = icmp eq i32 %35, 0
  br i1 %.not104, label %.thread, label %41

41:                                               ; preds = %39
  %42 = load i32, ptr @hf_chap_value, align 4
  %43 = tail call ptr @proto_tree_add_item(ptr noundef %34, i32 noundef %42, ptr noundef %0, i32 noundef 5, i32 noundef %37, i32 noundef 0)
  %44 = sub nsw i32 %35, %37
  %.fr = freeze i32 %44
  %.not105 = icmp eq i32 %35, %37
  br i1 %.not105, label %49, label %45

45:                                               ; preds = %41
  %46 = add nuw nsw i32 %37, 5
  %47 = load i32, ptr @hf_chap_name, align 4
  %48 = tail call ptr @proto_tree_add_item(ptr noundef %34, i32 noundef %47, ptr noundef %0, i32 noundef %46, i32 noundef %.fr, i32 noundef 0)
  br label %49

49:                                               ; preds = %45, %41
  %.092 = phi i32 [ %46, %45 ], [ 0, %41 ]
  %50 = load ptr, ptr %6, align 8
  %51 = getelementptr inbounds nuw i8, ptr %1, i64 408
  %52 = load ptr, ptr %51, align 8
  %53 = icmp ugt i32 %.fr, 20
  %54 = tail call i32 @llvm.umin.i32(i32 %.fr, i32 20)
  %55 = tail call ptr @tvb_format_text(ptr noundef %52, ptr noundef %0, i32 noundef %.092, i32 noundef %54)
  %spec.select = select i1 %53, ptr @.str.1581, ptr @.str.1006
  %.not106 = icmp eq i8 %36, 0
  br i1 %.not106, label %59, label %56

56:                                               ; preds = %49
  %57 = load ptr, ptr %51, align 8
  %58 = tail call ptr @tvb_bytes_to_str(ptr noundef %57, ptr noundef %0, i32 noundef 5, i32 noundef %37)
  br label %59

59:                                               ; preds = %49, %56
  %60 = phi ptr [ %58, %56 ], [ @.str.1006, %49 ]
  tail call void (ptr, i32, ptr, ...) @col_append_fstr(ptr noundef %50, i32 noundef 25, ptr noundef nonnull @.str.1580, ptr noundef %55, ptr noundef nonnull %spec.select, ptr noundef %60)
  br label %.thread

61:                                               ; preds = %30
  %62 = icmp eq i8 %36, 1
  %63 = select i1 %62, ptr @.str.1006, ptr @.str.1007
  %64 = tail call ptr (ptr, i32, ptr, i32, i32, i32, ptr, ...) @proto_tree_add_uint_format_value(ptr noundef %34, i32 noundef %38, ptr noundef %0, i32 noundef 4, i32 noundef 1, i32 noundef %37, ptr noundef nonnull @.str.1579, i32 noundef %37, ptr noundef nonnull %63, i32 noundef %35)
  br label %79

65:                                               ; preds = %25, %25
  %.not = icmp eq i32 %28, 0
  br i1 %.not, label %69, label %66

66:                                               ; preds = %65
  %67 = load i32, ptr @hf_chap_message, align 4
  %68 = tail call ptr @proto_tree_add_item(ptr noundef %14, i32 noundef %67, ptr noundef %0, i32 noundef 4, i32 noundef %28, i32 noundef 0)
  br label %69

69:                                               ; preds = %66, %65
  %70 = load ptr, ptr %6, align 8
  %71 = getelementptr inbounds nuw i8, ptr %1, i64 408
  %72 = load ptr, ptr %71, align 8
  %73 = tail call ptr @tvb_format_text(ptr noundef %72, ptr noundef %0, i32 noundef 4, i32 noundef %28)
  tail call void (ptr, i32, ptr, ...) @col_append_fstr(ptr noundef %70, i32 noundef 25, ptr noundef nonnull @.str.1582, ptr noundef %73)
  br label %.thread

74:                                               ; preds = %25
  %.not108 = icmp eq i32 %28, 0
  br i1 %.not108, label %.thread, label %75

75:                                               ; preds = %74
  %76 = load i32, ptr @hf_chap_stuff, align 4
  %77 = tail call ptr @proto_tree_add_item(ptr noundef %14, i32 noundef %76, ptr noundef %0, i32 noundef 4, i32 noundef %28, i32 noundef 0)
  br label %.thread

.thread:                                          ; preds = %59, %39, %74, %75, %29, %69
  %78 = tail call i32 @tvb_captured_length(ptr noundef %0)
  br label %79

79:                                               ; preds = %61, %.thread, %22
  %.094 = phi i32 [ 4, %22 ], [ %78, %.thread ], [ 4, %61 ]
  ret i32 %.094
}